80000000    00108117      auipc sp, 1081344
80000004    03010113      addi sp, sp, 48
80000008    5a0000ef      jal ra, 1440      #5A8
8000000C    534000ef      jal ra, 1332
80000010    0000006f      jal zero, 0
80000014    ff010113      addi sp, sp, 4080
80000018    00112623      sw ra, 12(sp)
8000001C    00812423      sw s0, 8(sp)
80000020    01010413      addi s0, sp, 16
80000024    802007b7      lui a5, -2145386496
80000028    0007a783      lw a5, 0(a5)
8000002C    00078513      addi a0, a5, 0
80000030    00c12083      lw ra, 12(sp)
80000034    00812403      lw s0, 8(sp)
80000038    01010113      addi sp, sp, 16
8000003C    00008067      jalr zero, 0(ra)
80000040    ff010113      addi sp, sp, 4080
80000044    00112623      sw ra, 12(sp)
80000048    00812423      sw s0, 8(sp)
8000004C    01010413      addi s0, sp, 16
80000050    802007b7      lui a5, -2145386496
80000054    00478793      addi a5, a5, 4
80000058    0007a783      lw a5, 0(a5)
8000005C    00078513      addi a0, a5, 0
80000060    00c12083      lw ra, 12(sp)
80000064    00812403      lw s0, 8(sp)
80000068    01010113      addi sp, sp, 16
8000006C    00008067      jalr zero, 0(ra)
80000070    fd010113      addi sp, sp, 4048
80000074    02112623      sw ra, 44(sp)
80000078    02812423      sw s0, 40(sp)
8000007C    03010413      addi s0, sp, 48
80000080    fca42e23      sw a0, 4060(s0)
80000084    fe042623      sw zero, 4076(s0)
80000088    fe042423      sw zero, 4072(s0)
8000008C    0580006f      jal zero, 88
80000090    fdc42783      lw a5, 4060(s0)
80000094    00a00593      addi a1, zero, 10
80000098    00078513      addi a0, a5, 0
8000009C    2dc010ef      jal ra, 732
800000A0    00050793      addi a5, a0, 0
800000A4    fef42223      sw a5, 4068(s0)
800000A8    fe842783      lw a5, 4072(s0)
800000AC    fe442703      lw a4, 4068(s0)
800000B0    00f717b3      sll a5, a4, a5
800000B4    fec42703      lw a4, 4076(s0)
800000B8    00f767b3      or a5, a4, a5
800000BC    fef42623      sw a5, 4076(s0)
800000C0    fdc42783      lw a5, 4060(s0)
800000C4    00a00593      addi a1, zero, 10
800000C8    00078513      addi a0, a5, 0
800000CC    264010ef      jal ra, 612
800000D0    00050793      addi a5, a0, 0
800000D4    fcf42e23      sw a5, 4060(s0)
800000D8    fe842783      lw a5, 4072(s0)
800000DC    00478793      addi a5, a5, 4
800000E0    fef42423      sw a5, 4072(s0)
800000E4    fdc42783      lw a5, 4060(s0)
800000E8    fa0794e3      bne a5, zero, 4008
800000EC    fec42783      lw a5, 4076(s0)
800000F0    00078513      addi a0, a5, 0
800000F4    02c12083      lw ra, 44(sp)
800000F8    02812403      lw s0, 40(sp)
800000FC    03010113      addi sp, sp, 48
80000100    00008067      jalr zero, 0(ra)
80000104    fe010113      addi sp, sp, 4064
80000108    00112e23      sw ra, 28(sp)
8000010C    00812c23      sw s0, 24(sp)
80000110    02010413      addi s0, sp, 32
80000114    801007b7      lui a5, -2146435072
80000118    0007a783      lw a5, 0(a5)
8000011C    00078513      addi a0, a5, 0
80000120    f51ff0ef      jal ra, 3920
80000124    fea42623      sw a0, 4076(s0)
80000128    802007b7      lui a5, -2145386496
8000012C    02078793      addi a5, a5, 32
80000130    fec42703      lw a4, 4076(s0)
80000134    01871713      slli a4, a4, 24
80000138    00e7a023      sw a4, 0(a5)
8000013C    00000013      addi zero, zero, 0
80000140    01c12083      lw ra, 28(sp)
80000144    01812403      lw s0, 24(sp)
80000148    02010113      addi sp, sp, 32
8000014C    00008067      jalr zero, 0(ra)
80000150    fd010113      addi sp, sp, 4048
80000154    02112623      sw ra, 44(sp)
80000158    02812423      sw s0, 40(sp)
8000015C    03010413      addi s0, sp, 48
80000160    fca42e23      sw a0, 4060(s0)
80000164    fdc42503      lw a0, 4060(s0)
80000168    f09ff0ef      jal ra, 3848
8000016C    00050713      addi a4, a0, 0
80000170    010007b7      lui a5, 16777216
80000174    fff78793      addi a5, a5, 4095
80000178    00f777b3      and a5, a4, a5
8000017C    fef42623      sw a5, 4076(s0)
80000180    802007b7      lui a5, -2145386496
80000184    02078793      addi a5, a5, 32
80000188    0007a683      lw a3, 0(a5)
8000018C    802007b7      lui a5, -2145386496
80000190    02078793      addi a5, a5, 32
80000194    fec42703      lw a4, 4076(s0)
80000198    00e6e733      or a4, a3, a4
8000019C    00e7a023      sw a4, 0(a5)
800001A0    00000013      addi zero, zero, 0
800001A4    02c12083      lw ra, 44(sp)
800001A8    02812403      lw s0, 40(sp)
800001AC    03010113      addi sp, sp, 48
800001B0    00008067      jalr zero, 0(ra)
800001B4    fe010113      addi sp, sp, 4064
800001B8    00112e23      sw ra, 28(sp)
800001BC    00812c23      sw s0, 24(sp)
800001C0    02010413      addi s0, sp, 32
800001C4    fea42623      sw a0, 4076(s0)
800001C8    802007b7      lui a5, -2145386496
800001CC    04078793      addi a5, a5, 64
800001D0    fec42703      lw a4, 4076(s0)
800001D4    00e7a023      sw a4, 0(a5)
800001D8    00000013      addi zero, zero, 0
800001DC    01c12083      lw ra, 28(sp)
800001E0    01812403      lw s0, 24(sp)
800001E4    02010113      addi sp, sp, 32
800001E8    00008067      jalr zero, 0(ra)
800001EC    fe010113      addi sp, sp, 4064
800001F0    00112e23      sw ra, 28(sp)
800001F4    00812c23      sw s0, 24(sp)
800001F8    02010413      addi s0, sp, 32
800001FC    fe042623      sw zero, 4076(s0)
80000200    fec42703      lw a4, 4076(s0)
80000204    010007b7      lui a5, 16777216
80000208    00f767b3      or a5, a4, a5
8000020C    fef42623      sw a5, 4076(s0)
80000210    fec42703      lw a4, 4076(s0)
80000214    000207b7      lui a5, 131072
80000218    00f767b3      or a5, a4, a5
8000021C    fef42623      sw a5, 4076(s0)
80000220    fec42703      lw a4, 4076(s0)
80000224    000017b7      lui a5, 4096
80000228    80078793      addi a5, a5, 2048
8000022C    00f767b3      or a5, a4, a5
80000230    fef42623      sw a5, 4076(s0)
80000234    fec42783      lw a5, 4076(s0)
80000238    4007e793      ori a5, a5, 1024
8000023C    fef42623      sw a5, 4076(s0)
80000240    fec42783      lw a5, 4076(s0)
80000244    0087e793      ori a5, a5, 8
80000248    fef42623      sw a5, 4076(s0)
8000024C    fec42703      lw a4, 4076(s0)
80000250    000017b7      lui a5, 4096
80000254    00f767b3      or a5, a4, a5
80000258    fef42623      sw a5, 4076(s0)
8000025C    fec42703      lw a4, 4076(s0)
80000260    002007b7      lui a5, 2097152
80000264    00f767b3      or a5, a4, a5
80000268    fef42623      sw a5, 4076(s0)
8000026C    fec42503      lw a0, 4076(s0)
80000270    f45ff0ef      jal ra, 3908
80000274    00000013      addi zero, zero, 0
80000278    01c12083      lw ra, 28(sp)
8000027C    01812403      lw s0, 24(sp)
80000280    02010113      addi sp, sp, 32
80000284    00008067      jalr zero, 0(ra)
80000288    fe010113      addi sp, sp, 4064
8000028C    00112e23      sw ra, 28(sp)
80000290    00812c23      sw s0, 24(sp)
80000294    02010413      addi s0, sp, 32
80000298    fe042623      sw zero, 4076(s0)
8000029C    fec42783      lw a5, 4076(s0)
800002A0    0207e793      ori a5, a5, 32
800002A4    fef42623      sw a5, 4076(s0)
800002A8    fec42703      lw a4, 4076(s0)
800002AC    000017b7      lui a5, 4096
800002B0    00f767b3      or a5, a4, a5
800002B4    fef42623      sw a5, 4076(s0)
800002B8    fec42703      lw a4, 4076(s0)
800002BC    000807b7      lui a5, 524288
800002C0    00f767b3      or a5, a4, a5
800002C4    fef42623      sw a5, 4076(s0)
800002C8    fec42703      lw a4, 4076(s0)
800002CC    040007b7      lui a5, 67108864
800002D0    00f767b3      or a5, a4, a5
800002D4    fef42623      sw a5, 4076(s0)
800002D8    fec42783      lw a5, 4076(s0)
800002DC    0047e793      ori a5, a5, 4
800002E0    fef42623      sw a5, 4076(s0)
800002E4    fec42703      lw a4, 4076(s0)
800002E8    000017b7      lui a5, 4096
800002EC    80078793      addi a5, a5, 2048
800002F0    00f767b3      or a5, a4, a5
800002F4    fef42623      sw a5, 4076(s0)
800002F8    fec42703      lw a4, 4076(s0)
800002FC    001007b7      lui a5, 1048576
80000300    00f767b3      or a5, a4, a5
80000304    fef42623      sw a5, 4076(s0)
80000308    fec42703      lw a4, 4076(s0)
8000030C    200007b7      lui a5, 536870912
80000310    00f767b3      or a5, a4, a5
80000314    fef42623      sw a5, 4076(s0)
80000318    fec42503      lw a0, 4076(s0)
8000031C    e99ff0ef      jal ra, 3736
80000320    00000013      addi zero, zero, 0
80000324    01c12083      lw ra, 28(sp)
80000328    01812403      lw s0, 24(sp)
8000032C    02010113      addi sp, sp, 32
80000330    00008067      jalr zero, 0(ra)
80000334    fe010113      addi sp, sp, 4064
80000338    00112e23      sw ra, 28(sp)
8000033C    00812c23      sw s0, 24(sp)
80000340    02010413      addi s0, sp, 32
80000344    fe042623      sw zero, 4076(s0)
80000348    0200006f      jal zero, 32
8000034C    802007b7      lui a5, -2145386496
80000350    05078793      addi a5, a5, 80
80000354    80000737      lui a4, -2147483648
80000358    00e7a023      sw a4, 0(a5)
8000035C    fec42783      lw a5, 4076(s0)
80000360    00178793      addi a5, a5, 1
80000364    fef42623      sw a5, 4076(s0)
80000368    fec42703      lw a4, 4076(s0)
8000036C    00900793      addi a5, zero, 9
80000370    fce7dee3      bge a5, a4, 4060
80000374    00000013      addi zero, zero, 0
80000378    00000013      addi zero, zero, 0
8000037C    01c12083      lw ra, 28(sp)
80000380    01812403      lw s0, 24(sp)
80000384    02010113      addi sp, sp, 32
80000388    00008067      jalr zero, 0(ra)
8000038C    fe010113      addi sp, sp, 4064
80000390    00112e23      sw ra, 28(sp)
80000394    00812c23      sw s0, 24(sp)
80000398    02010413      addi s0, sp, 32
8000039C    fe042623      sw zero, 4076(s0)
800003A0    0200006f      jal zero, 32
800003A4    802007b7      lui a5, -2145386496
800003A8    05078793      addi a5, a5, 80
800003AC    fff00713      addi a4, zero, 4095
800003B0    00e7a023      sw a4, 0(a5)
800003B4    fec42783      lw a5, 4076(s0)
800003B8    00178793      addi a5, a5, 1
800003BC    fef42623      sw a5, 4076(s0)
800003C0    fec42703      lw a4, 4076(s0)
800003C4    00900793      addi a5, zero, 9
800003C8    fce7dee3      bge a5, a4, 4060
800003CC    00000013      addi zero, zero, 0
800003D0    00000013      addi zero, zero, 0
800003D4    01c12083      lw ra, 28(sp)
800003D8    01812403      lw s0, 24(sp)
800003DC    02010113      addi sp, sp, 32
800003E0    00008067      jalr zero, 0(ra)
800003E4    ff010113      addi sp, sp, 4080
800003E8    00112623      sw ra, 12(sp)
800003EC    00812423      sw s0, 8(sp)
800003F0    01010413      addi s0, sp, 16
800003F4    802007b7      lui a5, -2145386496
800003F8    05078793      addi a5, a5, 80
800003FC    0007a783      lw a5, 0(a5)
80000400    00078513      addi a0, a5, 0
80000404    00c12083      lw ra, 12(sp)
80000408    00812403      lw s0, 8(sp)
8000040C    01010113      addi sp, sp, 16
80000410    00008067      jalr zero, 0(ra)
80000414    ff010113      addi sp, sp, 4080
80000418    00112623      sw ra, 12(sp)
8000041C    00812423      sw s0, 8(sp)
80000420    01010413      addi s0, sp, 16
80000424    f69ff0ef      jal ra, 3944
80000428    fbdff0ef      jal ra, 4028
8000042C    00050793      addi a5, a0, 0
80000430    00078513      addi a0, a5, 0
80000434    d1dff0ef      jal ra, 3356
80000438    e51ff0ef      jal ra, 3664
8000043C    00000f93      addi t6, zero, 0
80000440    00000013      addi zero, zero, 0
80000444    00c12083      lw ra, 12(sp)
80000448    00812403      lw s0, 8(sp)
8000044C    01010113      addi sp, sp, 16
80000450    00008067      jalr zero, 0(ra)
80000454    ff010113      addi sp, sp, 4080
80000458    00112623      sw ra, 12(sp)
8000045C    00812423      sw s0, 8(sp)
80000460    01010413      addi s0, sp, 16
80000464    f29ff0ef      jal ra, 3880
80000468    f7dff0ef      jal ra, 3964
8000046C    00050793      addi a5, a0, 0
80000470    00078513      addi a0, a5, 0
80000474    cddff0ef      jal ra, 3292
80000478    d75ff0ef      jal ra, 3444
8000047C    00100f93      addi t6, zero, 1
80000480    00000013      addi zero, zero, 0
80000484    00c12083      lw ra, 12(sp)
80000488    00812403      lw s0, 8(sp)
8000048C    01010113      addi sp, sp, 16
80000490    00008067      jalr zero, 0(ra)
80000494    fd010113      addi sp, sp, 4048
80000498    02112623      sw ra, 44(sp)
8000049C    02812423      sw s0, 40(sp)
800004A0    02912223      sw s1, 36(sp)
800004A4    03010413      addi s0, sp, 48
800004A8    fca42e23      sw a0, 4060(s0)
800004AC    fe042623      sw zero, 4076(s0)
800004B0    fe042423      sw zero, 4072(s0)
800004B4    0640006f      jal zero, 100
800004B8    fe842703      lw a4, 4072(s0)
800004BC    00070793      addi a5, a4, 0
800004C0    00179793      slli a5, a5, 1
800004C4    00e787b3      add a5, a5, a4
800004C8    00279793      slli a5, a5, 2
800004CC    00e784b3      add s1, a5, a4
800004D0    fe842783      lw a5, 4072(s0)
800004D4    00700593      addi a1, zero, 7
800004D8    00078513      addi a0, a5, 0
800004DC    6d1000ef      jal ra, 3792
800004E0    00050793      addi a5, a0, 0
800004E4    00f484b3      add s1, s1, a5
800004E8    fe842783      lw a5, 4072(s0)
800004EC    ffd00593      addi a1, zero, 4093
800004F0    00078513      addi a0, a5, 0
800004F4    635000ef      jal ra, 3636
800004F8    00050793      addi a5, a0, 0
800004FC    00f487b3      add a5, s1, a5
80000500    fec42703      lw a4, 4076(s0)
80000504    00f707b3      add a5, a4, a5
80000508    fef42623      sw a5, 4076(s0)
8000050C    fe842783      lw a5, 4072(s0)
80000510    00178793      addi a5, a5, 1
80000514    fef42423      sw a5, 4072(s0)
80000518    fe842703      lw a4, 4072(s0)
8000051C    fdc42783      lw a5, 4060(s0)
80000520    f8f74ce3      blt a4, a5, 3992
80000524    fec42783      lw a5, 4076(s0)
80000528    00078513      addi a0, a5, 0
8000052C    02c12083      lw ra, 44(sp)
80000530    02812403      lw s0, 40(sp)
80000534    02412483      lw s1, 36(sp)
80000538    03010113      addi sp, sp, 48
8000053C    00008067      jalr zero, 0(ra)
80000540    fe010113      addi sp, sp, 4064
80000544    00112e23      sw ra, 28(sp)
80000548    00812c23      sw s0, 24(sp)
8000054C    02010413      addi s0, sp, 32
80000550    bb5ff0ef      jal ra, 2996
80000554    de1ff0ef      jal ra, 3552
80000558    000187b7      lui a5, 98304
8000055C    6a078793      addi a5, a5, 1696
80000560    fef42623      sw a5, 4076(s0)
80000564    fec42503      lw a0, 4076(s0)
80000568    f2dff0ef      jal ra, 3884
8000056C    fea42423      sw a0, 4072(s0)
80000570    fe842703      lw a4, 4072(s0)
80000574    bef167b7      lui a5, -1091477504
80000578    57078793      addi a5, a5, 1392
8000057C    00f70863      beq a4, a5, 16
80000580    e95ff0ef      jal ra, 3732
80000584    00000793      addi a5, zero, 0
80000588    00c0006f      jal zero, 12
8000058C    ec9ff0ef      jal ra, 3784
80000590    00000793      addi a5, zero, 0
80000594    00078513      addi a0, a5, 0
80000598    01c12083      lw ra, 28(sp)
8000059C    01812403      lw s0, 24(sp)
800005A0    02010113      addi sp, sp, 32
800005A4    00008067      jalr zero, 0(ra)
800005A8    00100317      auipc t1, 1048576
800005AC    a6030313      addi t1, t1, 2656
800005B0    00132c23      sw ra, 24(t1)
800005B4    0a4000ef      jal ra, 164
800005B8    184000ef      jal ra, 388
800005BC    34c000ef      jal ra, 844
800005C0    468000ef      jal ra, 1128
800005C4    294000ef      jal ra, 660
800005C8    1d0000ef      jal ra, 464
800005CC    4b0000ef      jal ra, 1200
800005D0    55c000ef      jal ra, 1372
800005D4    600000ef      jal ra, 1536
800005D8    6ac000ef      jal ra, 1708
800005DC    764000ef      jal ra, 1892
800005E0    79c000ef      jal ra, 1948
800005E4    38c000ef      jal ra, 908
800005E8    108000ef      jal ra, 264
800005EC    218000ef      jal ra, 536
800005F0    2c4000ef      jal ra, 708
800005F4    3e8000ef      jal ra, 1000
800005F8    4dc000ef      jal ra, 1244
800005FC    588000ef      jal ra, 1416
80000600    630000ef      jal ra, 1584
80000604    6ec000ef      jal ra, 1772
80000608    015000ef      jal ra, 2068
8000060C    7bc000ef      jal ra, 1980
80000610    151000ef      jal ra, 2384
80000614    1d5000ef      jal ra, 2516
80000618    059000ef      jal ra, 2136
8000061C    0a5000ef      jal ra, 2212
80000620    0f9000ef      jal ra, 2296
80000624    231000ef      jal ra, 2608
80000628    27d000ef      jal ra, 2684
8000062C    2cd000ef      jal ra, 2764
80000630    315000ef      jal ra, 2836
80000634    35d000ef      jal ra, 2908
80000638    3a5000ef      jal ra, 2980
8000063C    3ed000ef      jal ra, 3052
80000640    435000ef      jal ra, 3124
80000644    481000ef      jal ra, 3200
80000648    00100317      auipc t1, 1048576
8000064C    9c030313      addi t1, t1, 2496
80000650    01832083      lw ra, 24(t1)
80000654    00008067      jalr zero, 0(ra)
80000658    800002b7      lui t0, -2147483648
8000065C    fff28293      addi t0, t0, 4095
80000660    00100313      addi t1, zero, 1
80000664    006283b3      add t2, t0, t1
80000668    80000e37      lui t3, -2147483648
8000066C    07c39663      bne t2, t3, 108
80000670    fff00293      addi t0, zero, 4095
80000674    00100313      addi t1, zero, 1
80000678    006283b3      add t2, t0, t1
8000067C    04039e63      bne t2, zero, 92
80000680    123452b7      lui t0, 305418240
80000684    67828293      addi t0, t0, 1656
80000688    87654337      lui t1, -2023407616
8000068C    32130313      addi t1, t1, 801
80000690    006283b3      add t2, t0, t1
80000694    9999ae37      lui t3, -1717985280
80000698    999e0e13      addi t3, t3, 2457
8000069C    03c39e63      bne t2, t3, 60
800006A0    9999ae37      lui t3, -1717985280
800006A4    999e0e13      addi t3, t3, 2457
800006A8    9999aeb7      lui t4, -1717985280
800006AC    999e8e93      addi t4, t4, 2457
800006B0    01de0f33      add t5, t3, t4
800006B4    33333fb7      lui t6, 858992640
800006B8    332f8f93      addi t6, t6, 818
800006BC    01ff1e63      bne t5, t6, 28
800006C0    00100297      auipc t0, 1048576
800006C4    94028293      addi t0, t0, 2368
800006C8    0002a303      lw t1, 0(t0)
800006CC    00130313      addi t1, t1, 1
800006D0    0062a023      sw t1, 0(t0)
800006D4    00008067      jalr zero, 0(ra)
800006D8    00100297      auipc t0, 1048576
800006DC    92c28293      addi t0, t0, 2348
800006E0    0002a303      lw t1, 0(t0)
800006E4    00130313      addi t1, t1, 1
800006E8    0062a023      sw t1, 0(t0)
800006EC    00008067      jalr zero, 0(ra)
800006F0    00000293      addi t0, zero, 0
800006F4    07b28313      addi t1, t0, 123
800006F8    07b00393      addi t2, zero, 123
800006FC    02731463      bne t1, t2, 40
80000700    fff00293      addi t0, zero, 4095
80000704    00128313      addi t1, t0, 1
80000708    00031e63      bne t1, zero, 28
8000070C    00100297      auipc t0, 1048576
80000710    8f428293      addi t0, t0, 2292
80000714    0002a303      lw t1, 0(t0)
80000718    00130313      addi t1, t1, 1
8000071C    0062a023      sw t1, 0(t0)
80000720    00008067      jalr zero, 0(ra)
80000724    00100297      auipc t0, 1048576
80000728    8e028293      addi t0, t0, 2272
8000072C    0002a303      lw t1, 0(t0)
80000730    00130313      addi t1, t1, 1
80000734    0062a023      sw t1, 0(t0)
80000738    00008067      jalr zero, 0(ra)
8000073C    800002b7      lui t0, -2147483648
80000740    fff28293      addi t0, t0, 4095
80000744    80000337      lui t1, -2147483648
80000748    fff30313      addi t1, t1, 4095
8000074C    406283b3      sub t2, t0, t1
80000750    02039863      bne t2, zero, 48
80000754    00000293      addi t0, zero, 0
80000758    fff00313      addi t1, zero, 4095
8000075C    406283b3      sub t2, t0, t1
80000760    00100e13      addi t3, zero, 1
80000764    01c39e63      bne t2, t3, 28
80000768    00100297      auipc t0, 1048576
8000076C    89828293      addi t0, t0, 2200
80000770    0002a303      lw t1, 0(t0)
80000774    00130313      addi t1, t1, 1
80000778    0062a023      sw t1, 0(t0)
8000077C    00008067      jalr zero, 0(ra)
80000780    00100297      auipc t0, 1048576
80000784    88428293      addi t0, t0, 2180
80000788    0002a303      lw t1, 0(t0)
8000078C    00130313      addi t1, t1, 1
80000790    0062a023      sw t1, 0(t0)
80000794    00008067      jalr zero, 0(ra)
80000798    aaaab2b7      lui t0, -1431654400
8000079C    aaa28293      addi t0, t0, 2730
800007A0    55555337      lui t1, 1431654400
800007A4    55530313      addi t1, t1, 1365
800007A8    0062f3b3      and t2, t0, t1
800007AC    04039063      bne t2, zero, 64
800007B0    fff00293      addi t0, zero, 4095
800007B4    00000313      addi t1, zero, 0
800007B8    0062f3b3      and t2, t0, t1
800007BC    02039863      bne t2, zero, 48
800007C0    123452b7      lui t0, 305418240
800007C4    67828293      addi t0, t0, 1656
800007C8    fff00313      addi t1, zero, 4095
800007CC    0062f3b3      and t2, t0, t1
800007D0    00539e63      bne t2, t0, 28
800007D4    00100297      auipc t0, 1048576
800007D8    82c28293      addi t0, t0, 2092
800007DC    0002a303      lw t1, 0(t0)
800007E0    00130313      addi t1, t1, 1
800007E4    0062a023      sw t1, 0(t0)
800007E8    00008067      jalr zero, 0(ra)
800007EC    00100297      auipc t0, 1048576
800007F0    81828293      addi t0, t0, 2072
800007F4    0002a303      lw t1, 0(t0)
800007F8    00130313      addi t1, t1, 1
800007FC    0062a023      sw t1, 0(t0)
80000800    00008067      jalr zero, 0(ra)
80000804    fff00293      addi t0, zero, 4095
80000808    70f2f313      andi t1, t0, 1807
8000080C    70f00393      addi t2, zero, 1807
80000810    02731863      bne t1, t2, 48
80000814    1234b2b7      lui t0, 305442816
80000818    bcd28293      addi t0, t0, 3021
8000081C    5cb2f313      andi t1, t0, 1483
80000820    1c900393      addi t2, zero, 457
80000824    00731e63      bne t1, t2, 28
80000828    000ff297      auipc t0, 1044480
8000082C    7d828293      addi t0, t0, 2008
80000830    0002a303      lw t1, 0(t0)
80000834    00130313      addi t1, t1, 1
80000838    0062a023      sw t1, 0(t0)
8000083C    00008067      jalr zero, 0(ra)
80000840    000ff297      auipc t0, 1044480
80000844    7c428293      addi t0, t0, 1988
80000848    0002a303      lw t1, 0(t0)
8000084C    00130313      addi t1, t1, 1
80000850    0062a023      sw t1, 0(t0)
80000854    00008067      jalr zero, 0(ra)
80000858    aaaab2b7      lui t0, -1431654400
8000085C    aaa28293      addi t0, t0, 2730
80000860    55555337      lui t1, 1431654400
80000864    55530313      addi t1, t1, 1365
80000868    0062e3b3      or t2, t0, t1
8000086C    fff00e13      addi t3, zero, 4095
80000870    03c39663      bne t2, t3, 44
80000874    00000293      addi t0, zero, 0
80000878    00000313      addi t1, zero, 0
8000087C    0062e3b3      or t2, t0, t1
80000880    00039e63      bne t2, zero, 28
80000884    000ff297      auipc t0, 1044480
80000888    77c28293      addi t0, t0, 1916
8000088C    0002a303      lw t1, 0(t0)
80000890    00130313      addi t1, t1, 1
80000894    0062a023      sw t1, 0(t0)
80000898    00008067      jalr zero, 0(ra)
8000089C    000ff297      auipc t0, 1044480
800008A0    76828293      addi t0, t0, 1896
800008A4    0002a303      lw t1, 0(t0)
800008A8    00130313      addi t1, t1, 1
800008AC    0062a023      sw t1, 0(t0)
800008B0    00008067      jalr zero, 0(ra)
800008B4    00000293      addi t0, zero, 0
800008B8    7f02e313      ori t1, t0, 2032
800008BC    7f000393      addi t2, zero, 2032
800008C0    02731863      bne t1, t2, 48
800008C4    aaaa02b7      lui t0, -1431699456
800008C8    7ff2e313      ori t1, t0, 2047
800008CC    aaaa03b7      lui t2, -1431699456
800008D0    7ff38393      addi t2, t2, 2047
800008D4    00731e63      bne t1, t2, 28
800008D8    000ff297      auipc t0, 1044480
800008DC    72828293      addi t0, t0, 1832
800008E0    0002a303      lw t1, 0(t0)
800008E4    00130313      addi t1, t1, 1
800008E8    0062a023      sw t1, 0(t0)
800008EC    00008067      jalr zero, 0(ra)
800008F0    000ff297      auipc t0, 1044480
800008F4    71428293      addi t0, t0, 1812
800008F8    0002a303      lw t1, 0(t0)
800008FC    00130313      addi t1, t1, 1
80000900    0062a023      sw t1, 0(t0)
80000904    00008067      jalr zero, 0(ra)
80000908    fff00293      addi t0, zero, 4095
8000090C    00000313      addi t1, zero, 0
80000910    0062a3b3      slt t2, t0, t1
80000914    00100e13      addi t3, zero, 1
80000918    05c39063      bne t2, t3, 64
8000091C    07b00293      addi t0, zero, 123
80000920    07b00313      addi t1, zero, 123
80000924    0062a3b3      slt t2, t0, t1
80000928    02039863      bne t2, zero, 48
8000092C    800002b7      lui t0, -2147483648
80000930    fff28293      addi t0, t0, 4095
80000934    fff00313      addi t1, zero, 4095
80000938    0062a3b3      slt t2, t0, t1
8000093C    00039e63      bne t2, zero, 28
80000940    000ff297      auipc t0, 1044480
80000944    6c028293      addi t0, t0, 1728
80000948    0002a303      lw t1, 0(t0)
8000094C    00130313      addi t1, t1, 1
80000950    0062a023      sw t1, 0(t0)
80000954    00008067      jalr zero, 0(ra)
80000958    000ff297      auipc t0, 1044480
8000095C    6ac28293      addi t0, t0, 1708
80000960    0002a303      lw t1, 0(t0)
80000964    00130313      addi t1, t1, 1
80000968    0062a023      sw t1, 0(t0)
8000096C    00008067      jalr zero, 0(ra)
80000970    fff00293      addi t0, zero, 4095
80000974    0002a313      slti t1, t0, 0
80000978    00100393      addi t2, zero, 1
8000097C    04731663      bne t1, t2, 76
80000980    00500293      addi t0, zero, 5
80000984    00a2a313      slti t1, t0, 10
80000988    00100393      addi t2, zero, 1
8000098C    02731e63      bne t1, t2, 60
80000990    00500293      addi t0, zero, 5
80000994    0052a313      slti t1, t0, 5
80000998    00000393      addi t2, zero, 0
8000099C    02731663      bne t1, t2, 44
800009A0    00a00293      addi t0, zero, 10
800009A4    0052a313      slti t1, t0, 5
800009A8    00000393      addi t2, zero, 0
800009AC    00731e63      bne t1, t2, 28
800009B0    000ff297      auipc t0, 1044480
800009B4    65028293      addi t0, t0, 1616
800009B8    0002a303      lw t1, 0(t0)
800009BC    00130313      addi t1, t1, 1
800009C0    0062a023      sw t1, 0(t0)
800009C4    00008067      jalr zero, 0(ra)
800009C8    000ff297      auipc t0, 1044480
800009CC    63c28293      addi t0, t0, 1596
800009D0    0002a303      lw t1, 0(t0)
800009D4    00130313      addi t1, t1, 1
800009D8    0062a023      sw t1, 0(t0)
800009DC    00000293      addi t0, zero, 0
800009E0    0012b313      sltiu t1, t0, 1
800009E4    00100393      addi t2, zero, 1
800009E8    02731463      bne t1, t2, 40
800009EC    fff00293      addi t0, zero, 4095
800009F0    fff2b313      sltiu t1, t0, 4095
800009F4    00031e63      bne t1, zero, 28
800009F8    000ff297      auipc t0, 1044480
800009FC    60828293      addi t0, t0, 1544
80000A00    0002a303      lw t1, 0(t0)
80000A04    00130313      addi t1, t1, 1
80000A08    0062a023      sw t1, 0(t0)
80000A0C    00008067      jalr zero, 0(ra)
80000A10    000ff297      auipc t0, 1044480
80000A14    5f428293      addi t0, t0, 1524
80000A18    0002a303      lw t1, 0(t0)
80000A1C    00130313      addi t1, t1, 1
80000A20    0062a023      sw t1, 0(t0)
80000A24    00008067      jalr zero, 0(ra)
80000A28    fff00293      addi t0, zero, 4095
80000A2C    00000313      addi t1, zero, 0
80000A30    0062b3b3      sltu t2, t0, t1
80000A34    02039863      bne t2, zero, 48
80000A38    00000293      addi t0, zero, 0
80000A3C    00100313      addi t1, zero, 1
80000A40    0062b3b3      sltu t2, t0, t1
80000A44    00100e13      addi t3, zero, 1
80000A48    01c39e63      bne t2, t3, 28
80000A4C    000ff297      auipc t0, 1044480
80000A50    5b428293      addi t0, t0, 1460
80000A54    0002a303      lw t1, 0(t0)
80000A58    00130313      addi t1, t1, 1
80000A5C    0062a023      sw t1, 0(t0)
80000A60    00008067      jalr zero, 0(ra)
80000A64    000ff297      auipc t0, 1044480
80000A68    5a028293      addi t0, t0, 1440
80000A6C    0002a303      lw t1, 0(t0)
80000A70    00130313      addi t1, t1, 1
80000A74    0062a023      sw t1, 0(t0)
80000A78    00008067      jalr zero, 0(ra)
80000A7C    ffff02b7      lui t0, -65536
80000A80    00010337      lui t1, 65536
80000A84    fff30313      addi t1, t1, 4095
80000A88    0062c3b3      xor t2, t0, t1
80000A8C    fff00e13      addi t3, zero, 4095
80000A90    03c39663      bne t2, t3, 44
80000A94    aaaab2b7      lui t0, -1431654400
80000A98    aaa28293      addi t0, t0, 2730
80000A9C    0052c3b3      xor t2, t0, t0
80000AA0    00039e63      bne t2, zero, 28
80000AA4    000ff297      auipc t0, 1044480
80000AA8    55c28293      addi t0, t0, 1372
80000AAC    0002a303      lw t1, 0(t0)
80000AB0    00130313      addi t1, t1, 1
80000AB4    0062a023      sw t1, 0(t0)
80000AB8    00008067      jalr zero, 0(ra)
80000ABC    000ff297      auipc t0, 1044480
80000AC0    54828293      addi t0, t0, 1352
80000AC4    0002a303      lw t1, 0(t0)
80000AC8    00130313      addi t1, t1, 1
80000ACC    0062a023      sw t1, 0(t0)
80000AD0    00008067      jalr zero, 0(ra)
80000AD4    0000b2b7      lui t0, 45056
80000AD8    aaa28293      addi t0, t0, 2730
80000ADC    5552c313      xori t1, t0, 1365
80000AE0    0000b3b7      lui t2, 45056
80000AE4    fff38393      addi t2, t2, 4095
80000AE8    02731663      bne t1, t2, 44
80000AEC    00400293      addi t0, zero, 4
80000AF0    2342c313      xori t1, t0, 564
80000AF4    23000393      addi t2, zero, 560
80000AF8    00731e63      bne t1, t2, 28
80000AFC    000ff297      auipc t0, 1044480
80000B00    50428293      addi t0, t0, 1284
80000B04    0002a303      lw t1, 0(t0)
80000B08    00130313      addi t1, t1, 1
80000B0C    0062a023      sw t1, 0(t0)
80000B10    00008067      jalr zero, 0(ra)
80000B14    000ff297      auipc t0, 1044480
80000B18    4f028293      addi t0, t0, 1264
80000B1C    0002a303      lw t1, 0(t0)
80000B20    00130313      addi t1, t1, 1
80000B24    0062a023      sw t1, 0(t0)
80000B28    00008067      jalr zero, 0(ra)
80000B2C    00100293      addi t0, zero, 1
80000B30    00300313      addi t1, zero, 3
80000B34    006293b3      sll t2, t0, t1
80000B38    00800e13      addi t3, zero, 8
80000B3C    03c39863      bne t2, t3, 48
80000B40    00100293      addi t0, zero, 1
80000B44    01f00313      addi t1, zero, 31
80000B48    006293b3      sll t2, t0, t1
80000B4C    80000e37      lui t3, -2147483648
80000B50    01c39e63      bne t2, t3, 28
80000B54    000ff297      auipc t0, 1044480
80000B58    4ac28293      addi t0, t0, 1196
80000B5C    0002a303      lw t1, 0(t0)
80000B60    00130313      addi t1, t1, 1
80000B64    0062a023      sw t1, 0(t0)
80000B68    00008067      jalr zero, 0(ra)
80000B6C    000ff297      auipc t0, 1044480
80000B70    49828293      addi t0, t0, 1176
80000B74    0002a303      lw t1, 0(t0)
80000B78    00130313      addi t1, t1, 1
80000B7C    0062a023      sw t1, 0(t0)
80000B80    00008067      jalr zero, 0(ra)
80000B84    00100293      addi t0, zero, 1
80000B88    00429313      slli t1, t0, 4
80000B8C    01000393      addi t2, zero, 16
80000B90    02731663      bne t1, t2, 44
80000B94    00100293      addi t0, zero, 1
80000B98    01f29313      slli t1, t0, 31
80000B9C    800003b7      lui t2, -2147483648
80000BA0    00731e63      bne t1, t2, 28
80000BA4    000ff297      auipc t0, 1044480
80000BA8    45c28293      addi t0, t0, 1116
80000BAC    0002a303      lw t1, 0(t0)
80000BB0    00130313      addi t1, t1, 1
80000BB4    0062a023      sw t1, 0(t0)
80000BB8    00008067      jalr zero, 0(ra)
80000BBC    000ff297      auipc t0, 1044480
80000BC0    44828293      addi t0, t0, 1096
80000BC4    0002a303      lw t1, 0(t0)
80000BC8    00130313      addi t1, t1, 1
80000BCC    0062a023      sw t1, 0(t0)
80000BD0    00008067      jalr zero, 0(ra)
80000BD4    800002b7      lui t0, -2147483648
80000BD8    01f00313      addi t1, zero, 31
80000BDC    0062d3b3      srl t2, t0, t1
80000BE0    00100e13      addi t3, zero, 1
80000BE4    03c39a63      bne t2, t3, 52
80000BE8    fff00293      addi t0, zero, 4095
80000BEC    00400313      addi t1, zero, 4
80000BF0    0062d3b3      srl t2, t0, t1
80000BF4    10000e37      lui t3, 268435456
80000BF8    fffe0e13      addi t3, t3, 4095
80000BFC    01c39e63      bne t2, t3, 28
80000C00    000ff297      auipc t0, 1044480
80000C04    40028293      addi t0, t0, 1024
80000C08    0002a303      lw t1, 0(t0)
80000C0C    00130313      addi t1, t1, 1
80000C10    0062a023      sw t1, 0(t0)
80000C14    00008067      jalr zero, 0(ra)
80000C18    000ff297      auipc t0, 1044480
80000C1C    3ec28293      addi t0, t0, 1004
80000C20    0002a303      lw t1, 0(t0)
80000C24    00130313      addi t1, t1, 1
80000C28    0062a023      sw t1, 0(t0)
80000C2C    00008067      jalr zero, 0(ra)
80000C30    800002b7      lui t0, -2147483648
80000C34    01f2d313      srli t1, t0, 31
80000C38    00100393      addi t2, zero, 1
80000C3C    02731863      bne t1, t2, 48
80000C40    fff00293      addi t0, zero, 4095
80000C44    0042d313      srli t1, t0, 4
80000C48    100003b7      lui t2, 268435456
80000C4C    fff38393      addi t2, t2, 4095
80000C50    00731e63      bne t1, t2, 28
80000C54    000ff297      auipc t0, 1044480
80000C58    3ac28293      addi t0, t0, 940
80000C5C    0002a303      lw t1, 0(t0)
80000C60    00130313      addi t1, t1, 1
80000C64    0062a023      sw t1, 0(t0)
80000C68    00008067      jalr zero, 0(ra)
80000C6C    000ff297      auipc t0, 1044480
80000C70    39828293      addi t0, t0, 920
80000C74    0002a303      lw t1, 0(t0)
80000C78    00130313      addi t1, t1, 1
80000C7C    0062a023      sw t1, 0(t0)
80000C80    00008067      jalr zero, 0(ra)
80000C84    fff00293      addi t0, zero, 4095
80000C88    01f00313      addi t1, zero, 31
80000C8C    4062d3b3      sra t2, t0, t1
80000C90    fff00e13      addi t3, zero, 4095
80000C94    05c39263      bne t2, t3, 68
80000C98    800002b7      lui t0, -2147483648
80000C9C    01f00313      addi t1, zero, 31
80000CA0    4062d3b3      sra t2, t0, t1
80000CA4    fff00e13      addi t3, zero, 4095
80000CA8    03c39863      bne t2, t3, 48
80000CAC    010002b7      lui t0, 16777216
80000CB0    00400313      addi t1, zero, 4
80000CB4    4062d3b3      sra t2, t0, t1
80000CB8    00100e37      lui t3, 1048576
80000CBC    01c39e63      bne t2, t3, 28
80000CC0    000ff297      auipc t0, 1044480
80000CC4    34028293      addi t0, t0, 832
80000CC8    0002a303      lw t1, 0(t0)
80000CCC    00130313      addi t1, t1, 1
80000CD0    0062a023      sw t1, 0(t0)
80000CD4    00008067      jalr zero, 0(ra)
80000CD8    000ff297      auipc t0, 1044480
80000CDC    32c28293      addi t0, t0, 812
80000CE0    0002a303      lw t1, 0(t0)
80000CE4    00130313      addi t1, t1, 1
80000CE8    0062a023      sw t1, 0(t0)
80000CEC    00008067      jalr zero, 0(ra)
80000CF0    fff00293      addi t0, zero, 4095
80000CF4    41f2d313      srai t1, t0, 31
80000CF8    fff00393      addi t2, zero, 4095
80000CFC    02731663      bne t1, t2, 44
80000D00    800002b7      lui t0, -2147483648
80000D04    41f2d313      srai t1, t0, 31
80000D08    fff00393      addi t2, zero, 4095
80000D0C    00731e63      bne t1, t2, 28
80000D10    000ff297      auipc t0, 1044480
80000D14    2f028293      addi t0, t0, 752
80000D18    0002a303      lw t1, 0(t0)
80000D1C    00130313      addi t1, t1, 1
80000D20    0062a023      sw t1, 0(t0)
80000D24    00008067      jalr zero, 0(ra)
80000D28    000ff297      auipc t0, 1044480
80000D2C    2dc28293      addi t0, t0, 732
80000D30    0002a303      lw t1, 0(t0)
80000D34    00130313      addi t1, t1, 1
80000D38    0062a023      sw t1, 0(t0)
80000D3C    00008067      jalr zero, 0(ra)
80000D40    123452b7      lui t0, 305418240
80000D44    12345337      lui t1, 305418240
80000D48    00629e63      bne t0, t1, 28
80000D4C    000ff297      auipc t0, 1044480
80000D50    2b428293      addi t0, t0, 692
80000D54    0002a303      lw t1, 0(t0)
80000D58    00130313      addi t1, t1, 1
80000D5C    0062a023      sw t1, 0(t0)
80000D60    00008067      jalr zero, 0(ra)
80000D64    000ff297      auipc t0, 1044480
80000D68    2a028293      addi t0, t0, 672
80000D6C    0002a303      lw t1, 0(t0)
80000D70    00130313      addi t1, t1, 1
80000D74    0062a023      sw t1, 0(t0)
80000D78    00008067      jalr zero, 0(ra)
80000D7C    00000297      auipc t0, 0
80000D80    00028293      addi t0, t0, 0
80000D84    00000013      addi zero, zero, 0
80000D88    00000013      addi zero, zero, 0
80000D8C    00000317      auipc t1, 0
80000D90    ff030313      addi t1, t1, 4080
80000D94    00629e63      bne t0, t1, 28
80000D98    000ff297      auipc t0, 1044480
80000D9C    26828293      addi t0, t0, 616
80000DA0    0002a303      lw t1, 0(t0)
80000DA4    00130313      addi t1, t1, 1
80000DA8    0062a023      sw t1, 0(t0)
80000DAC    00008067      jalr zero, 0(ra)
80000DB0    000ff297      auipc t0, 1044480
80000DB4    25428293      addi t0, t0, 596
80000DB8    0002a303      lw t1, 0(t0)
80000DBC    00130313      addi t1, t1, 1
80000DC0    0062a023      sw t1, 0(t0)
80000DC4    00008067      jalr zero, 0(ra)
80000DC8    123452b7      lui t0, 305418240
80000DCC    68828293      addi t0, t0, 1672
80000DD0    000ff317      auipc t1, 1044480
80000DD4    23830313      addi t1, t1, 568
80000DD8    00532023      sw t0, 0(t1)
80000DDC    00032383      lw t2, 0(t1)
80000DE0    12345e37      lui t3, 305418240
80000DE4    688e0e13      addi t3, t3, 1672
80000DE8    01c39e63      bne t2, t3, 28
80000DEC    000ff297      auipc t0, 1044480
80000DF0    21428293      addi t0, t0, 532
80000DF4    0002a303      lw t1, 0(t0)
80000DF8    00130313      addi t1, t1, 1
80000DFC    0062a023      sw t1, 0(t0)
80000E00    00008067      jalr zero, 0(ra)
80000E04    000ff297      auipc t0, 1044480
80000E08    20028293      addi t0, t0, 512
80000E0C    0002a303      lw t1, 0(t0)
80000E10    00130313      addi t1, t1, 1
80000E14    0062a023      sw t1, 0(t0)
80000E18    00008067      jalr zero, 0(ra)
80000E1C    00008413      addi s0, ra, 0
80000E20    010000ef      jal ra, 16
80000E24    00000297      auipc t0, 0
80000E28    00509863      bne ra, t0, 16
80000E2C    0280006f      jal zero, 40
80000E30    00400313      addi t1, zero, 4
80000E34    00008067      jalr zero, 0(ra)
80000E38    000ff297      auipc t0, 1044480
80000E3C    1cc28293      addi t0, t0, 460
80000E40    0002a303      lw t1, 0(t0)
80000E44    00130313      addi t1, t1, 1
80000E48    0062a023      sw t1, 0(t0)
80000E4C    00040093      addi ra, s0, 0
80000E50    00008067      jalr zero, 0(ra)
80000E54    000ff297      auipc t0, 1044480
80000E58    1ac28293      addi t0, t0, 428
80000E5C    0002a303      lw t1, 0(t0)
80000E60    00130313      addi t1, t1, 1
80000E64    0062a023      sw t1, 0(t0)
80000E68    00040093      addi ra, s0, 0
80000E6C    00008067      jalr zero, 0(ra)
80000E70    000ff297      auipc t0, 1044480
80000E74    19828293      addi t0, t0, 408
80000E78    00228303      lb t1, 2(t0)
80000E7C    03400393      addi t2, zero, 52
80000E80    02731463      bne t1, t2, 40
80000E84    00028303      lb t1, 0(t0)
80000E88    f8800393      addi t2, zero, 3976
80000E8C    00731e63      bne t1, t2, 28
80000E90    000ff297      auipc t0, 1044480
80000E94    17028293      addi t0, t0, 368
80000E98    0002a303      lw t1, 0(t0)
80000E9C    00130313      addi t1, t1, 1
80000EA0    0062a023      sw t1, 0(t0)
80000EA4    00008067      jalr zero, 0(ra)
80000EA8    000ff297      auipc t0, 1044480
80000EAC    15c28293      addi t0, t0, 348
80000EB0    0002a303      lw t1, 0(t0)
80000EB4    00130313      addi t1, t1, 1
80000EB8    0062a023      sw t1, 0(t0)
80000EBC    00008067      jalr zero, 0(ra)
80000EC0    000ff297      auipc t0, 1044480
80000EC4    14828293      addi t0, t0, 328
80000EC8    00429303      lh t1, 4(t0)
80000ECC    ffffb3b7      lui t2, -20480
80000ED0    bcd38393      addi t2, t2, 3021
80000ED4    02731663      bne t1, t2, 44
80000ED8    00629303      lh t1, 6(t0)
80000EDC    000013b7      lui t2, 4096
80000EE0    23438393      addi t2, t2, 564
80000EE4    00731e63      bne t1, t2, 28
80000EE8    000ff297      auipc t0, 1044480
80000EEC    11828293      addi t0, t0, 280
80000EF0    0002a303      lw t1, 0(t0)
80000EF4    00130313      addi t1, t1, 1
80000EF8    0062a023      sw t1, 0(t0)
80000EFC    00008067      jalr zero, 0(ra)
80000F00    000ff297      auipc t0, 1044480
80000F04    10428293      addi t0, t0, 260
80000F08    0002a303      lw t1, 0(t0)
80000F0C    00130313      addi t1, t1, 1
80000F10    0062a023      sw t1, 0(t0)
80000F14    00008067      jalr zero, 0(ra)
80000F18    000ff297      auipc t0, 1044480
80000F1C    0f028293      addi t0, t0, 240
80000F20    0082a303      lw t1, 8(t0)
80000F24    556673b7      lui t2, 1432776704
80000F28    78838393      addi t2, t2, 1928
80000F2C    00731e63      bne t1, t2, 28
80000F30    000ff297      auipc t0, 1044480
80000F34    0d028293      addi t0, t0, 208
80000F38    0002a303      lw t1, 0(t0)
80000F3C    00130313      addi t1, t1, 1
80000F40    0062a023      sw t1, 0(t0)
80000F44    00008067      jalr zero, 0(ra)
80000F48    000ff297      auipc t0, 1044480
80000F4C    0bc28293      addi t0, t0, 188
80000F50    0002a303      lw t1, 0(t0)
80000F54    00130313      addi t1, t1, 1
80000F58    0062a023      sw t1, 0(t0)
80000F5C    00008067      jalr zero, 0(ra)
80000F60    000ff297      auipc t0, 1044480
80000F64    0a828293      addi t0, t0, 168
80000F68    07f00313      addi t1, zero, 127
80000F6C    00628623      sb t1, 12(t0)
80000F70    00c28383      lb t2, 12(t0)
80000F74    07f00e13      addi t3, zero, 127
80000F78    05c39c63      bne t2, t3, 88
80000F7C    07f00313      addi t1, zero, 127
80000F80    006286a3      sb t1, 13(t0)
80000F84    00d28383      lb t2, 13(t0)
80000F88    07f00e13      addi t3, zero, 127
80000F8C    05c39263      bne t2, t3, 68
80000F90    07f00313      addi t1, zero, 127
80000F94    00628723      sb t1, 14(t0)
80000F98    00e28383      lb t2, 14(t0)
80000F9C    07f00e13      addi t3, zero, 127
80000FA0    03c39863      bne t2, t3, 48
80000FA4    07f00313      addi t1, zero, 127
80000FA8    006287a3      sb t1, 15(t0)
80000FAC    00f28383      lb t2, 15(t0)
80000FB0    07f00e13      addi t3, zero, 127
80000FB4    01c39e63      bne t2, t3, 28
80000FB8    000ff297      auipc t0, 1044480
80000FBC    04828293      addi t0, t0, 72
80000FC0    0002a303      lw t1, 0(t0)
80000FC4    00130313      addi t1, t1, 1
80000FC8    0062a023      sw t1, 0(t0)
80000FCC    00008067      jalr zero, 0(ra)
80000FD0    000ff297      auipc t0, 1044480
80000FD4    03428293      addi t0, t0, 52
80000FD8    0002a303      lw t1, 0(t0)
80000FDC    00130313      addi t1, t1, 1
80000FE0    0062a023      sw t1, 0(t0)
80000FE4    00008067      jalr zero, 0(ra)
80000FE8    000ff297      auipc t0, 1044480
80000FEC    02028293      addi t0, t0, 32
80000FF0    00008337      lui t1, 32768
80000FF4    00130313      addi t1, t1, 1
80000FF8    00629823      sh t1, 16(t0)
80000FFC    01029383      lh t2, 16(t0)
80001000    ffff8e37      lui t3, -32768
80001004    001e0e13      addi t3, t3, 1
80001008    03c39a63      bne t2, t3, 52
8000100C    10100313      addi t1, zero, 257
80001010    00629923      sh t1, 18(t0)
80001014    0102a383      lw t2, 16(t0)
80001018    01018e37      lui t3, 16875520
8000101C    001e0e13      addi t3, t3, 1
80001020    01c39e63      bne t2, t3, 28
80001024    000ff297      auipc t0, 1044480
80001028    fdc28293      addi t0, t0, 4060
8000102C    0002a303      lw t1, 0(t0)
80001030    00130313      addi t1, t1, 1
80001034    0062a023      sw t1, 0(t0)
80001038    00008067      jalr zero, 0(ra)
8000103C    000ff297      auipc t0, 1044480
80001040    fc828293      addi t0, t0, 4040
80001044    0002a303      lw t1, 0(t0)
80001048    00130313      addi t1, t1, 1
8000104C    0062a023      sw t1, 0(t0)
80001050    00008067      jalr zero, 0(ra)
80001054    000ff297      auipc t0, 1044480
80001058    fb428293      addi t0, t0, 4020
8000105C    0142c303      lbu t1, 20(t0)
80001060    0ff00393      addi t2, zero, 255
80001064    02731463      bne t1, t2, 40
80001068    0152c303      lbu t1, 21(t0)
8000106C    00000393      addi t2, zero, 0
80001070    00731e63      bne t1, t2, 28
80001074    000ff297      auipc t0, 1044480
80001078    f8c28293      addi t0, t0, 3980
8000107C    0002a303      lw t1, 0(t0)
80001080    00130313      addi t1, t1, 1
80001084    0062a023      sw t1, 0(t0)
80001088    00008067      jalr zero, 0(ra)
8000108C    000ff297      auipc t0, 1044480
80001090    f7828293      addi t0, t0, 3960
80001094    0002a303      lw t1, 0(t0)
80001098    00130313      addi t1, t1, 1
8000109C    0062a023      sw t1, 0(t0)
800010A0    00008067      jalr zero, 0(ra)
800010A4    000ff297      auipc t0, 1044480
800010A8    f6428293      addi t0, t0, 3940
800010AC    0142d303      lhu t1, 20(t0)
800010B0    0ff00393      addi t2, zero, 255
800010B4    02731663      bne t1, t2, 44
800010B8    0162d303      lhu t1, 22(t0)
800010BC    000103b7      lui t2, 65536
800010C0    f0038393      addi t2, t2, 3840
800010C4    00731e63      bne t1, t2, 28
800010C8    000ff297      auipc t0, 1044480
800010CC    f3828293      addi t0, t0, 3896
800010D0    0002a303      lw t1, 0(t0)
800010D4    00130313      addi t1, t1, 1
800010D8    0062a023      sw t1, 0(t0)
800010DC    00008067      jalr zero, 0(ra)
800010E0    000ff297      auipc t0, 1044480
800010E4    f2428293      addi t0, t0, 3876
800010E8    0002a303      lw t1, 0(t0)
800010EC    00130313      addi t1, t1, 1
800010F0    0062a023      sw t1, 0(t0)
800010F4    00008067      jalr zero, 0(ra)
800010F8    00500293      addi t0, zero, 5
800010FC    00500313      addi t1, zero, 5
80001100    00628463      beq t0, t1, 8
80001104    0280006f      jal zero, 40
80001108    00100293      addi t0, zero, 1
8000110C    00200313      addi t1, zero, 2
80001110    00628e63      beq t0, t1, 28
80001114    000ff297      auipc t0, 1044480
80001118    eec28293      addi t0, t0, 3820
8000111C    0002a303      lw t1, 0(t0)
80001120    00130313      addi t1, t1, 1
80001124    0062a023      sw t1, 0(t0)
80001128    00008067      jalr zero, 0(ra)
8000112C    000ff297      auipc t0, 1044480
80001130    ed828293      addi t0, t0, 3800
80001134    0002a303      lw t1, 0(t0)
80001138    00130313      addi t1, t1, 1
8000113C    0062a023      sw t1, 0(t0)
80001140    00008067      jalr zero, 0(ra)
80001144    00100293      addi t0, zero, 1
80001148    00200313      addi t1, zero, 2
8000114C    00629463      bne t0, t1, 8
80001150    0280006f      jal zero, 40
80001154    00500293      addi t0, zero, 5
80001158    00500313      addi t1, zero, 5
8000115C    00629e63      bne t0, t1, 28
80001160    000ff297      auipc t0, 1044480
80001164    ea028293      addi t0, t0, 3744
80001168    0002a303      lw t1, 0(t0)
8000116C    00130313      addi t1, t1, 1
80001170    0062a023      sw t1, 0(t0)
80001174    00008067      jalr zero, 0(ra)
80001178    000ff297      auipc t0, 1044480
8000117C    e8c28293      addi t0, t0, 3724
80001180    0002a303      lw t1, 0(t0)
80001184    00130313      addi t1, t1, 1
80001188    0062a023      sw t1, 0(t0)
8000118C    00008067      jalr zero, 0(ra)
80001190    fff00293      addi t0, zero, 4095
80001194    00000313      addi t1, zero, 0
80001198    0062c463      blt t0, t1, 8
8000119C    0280006f      jal zero, 40
800011A0    00500293      addi t0, zero, 5
800011A4    00500313      addi t1, zero, 5
800011A8    0062ce63      blt t0, t1, 28
800011AC    000ff297      auipc t0, 1044480
800011B0    e5428293      addi t0, t0, 3668
800011B4    0002a303      lw t1, 0(t0)
800011B8    00130313      addi t1, t1, 1
800011BC    0062a023      sw t1, 0(t0)
800011C0    00008067      jalr zero, 0(ra)
800011C4    000ff297      auipc t0, 1044480
800011C8    e4028293      addi t0, t0, 3648
800011CC    0002a303      lw t1, 0(t0)
800011D0    00130313      addi t1, t1, 1
800011D4    0062a023      sw t1, 0(t0)
800011D8    00008067      jalr zero, 0(ra)
800011DC    00100293      addi t0, zero, 1
800011E0    fff00313      addi t1, zero, 4095
800011E4    0062d463      bge t0, t1, 8
800011E8    0280006f      jal zero, 40
800011EC    00100293      addi t0, zero, 1
800011F0    00500313      addi t1, zero, 5
800011F4    0062de63      bge t0, t1, 28
800011F8    000ff297      auipc t0, 1044480
800011FC    e0828293      addi t0, t0, 3592
80001200    0002a303      lw t1, 0(t0)
80001204    00130313      addi t1, t1, 1
80001208    0062a023      sw t1, 0(t0)
8000120C    00008067      jalr zero, 0(ra)
80001210    000ff297      auipc t0, 1044480
80001214    df428293      addi t0, t0, 3572
80001218    0002a303      lw t1, 0(t0)
8000121C    00130313      addi t1, t1, 1
80001220    0062a023      sw t1, 0(t0)
80001224    00008067      jalr zero, 0(ra)
80001228    fff00293      addi t0, zero, 4095
8000122C    00500313      addi t1, zero, 5
80001230    00536463      bltu t1, t0, 8
80001234    0280006f      jal zero, 40
80001238    00500293      addi t0, zero, 5
8000123C    00500313      addi t1, zero, 5
80001240    0062ee63      bltu t0, t1, 28
80001244    000ff297      auipc t0, 1044480
80001248    dbc28293      addi t0, t0, 3516
8000124C    0002a303      lw t1, 0(t0)
80001250    00130313      addi t1, t1, 1
80001254    0062a023      sw t1, 0(t0)
80001258    00008067      jalr zero, 0(ra)
8000125C    000ff297      auipc t0, 1044480
80001260    da828293      addi t0, t0, 3496
80001264    0002a303      lw t1, 0(t0)
80001268    00130313      addi t1, t1, 1
8000126C    0062a023      sw t1, 0(t0)
80001270    00008067      jalr zero, 0(ra)
80001274    00500293      addi t0, zero, 5
80001278    fff00313      addi t1, zero, 4095
8000127C    00537c63      bgeu t1, t0, 24
80001280    02c0006f      jal zero, 44
80001284    00500293      addi t0, zero, 5
80001288    00500313      addi t1, zero, 5
8000128C    0062f463      bgeu t0, t1, 8
80001290    01c0006f      jal zero, 28
80001294    000ff297      auipc t0, 1044480
80001298    d6c28293      addi t0, t0, 3436
8000129C    0002a303      lw t1, 0(t0)
800012A0    00130313      addi t1, t1, 1
800012A4    0062a023      sw t1, 0(t0)
800012A8    00008067      jalr zero, 0(ra)
800012AC    000ff297      auipc t0, 1044480
800012B0    d5828293      addi t0, t0, 3416
800012B4    0002a303      lw t1, 0(t0)
800012B8    00130313      addi t1, t1, 1
800012BC    0062a023      sw t1, 0(t0)
800012C0    00008067      jalr zero, 0(ra)
800012C4    00008413      addi s0, ra, 0
800012C8    00000297      auipc t0, 0
800012CC    02028293      addi t0, t0, 32
800012D0    000280e7      jalr ra, 0(t0)
800012D4    00000e17      auipc t3, 0
800012D8    00800313      addi t1, zero, 8
800012DC    00639a63      bne t2, t1, 20
800012E0    01c09863      bne ra, t3, 16
800012E4    0280006f      jal zero, 40
800012E8    00800393      addi t2, zero, 8
800012EC    00008067      jalr zero, 0(ra)
800012F0    000ff297      auipc t0, 1044480
800012F4    d1428293      addi t0, t0, 3348
800012F8    0002a303      lw t1, 0(t0)
800012FC    00130313      addi t1, t1, 1
80001300    0062a023      sw t1, 0(t0)
80001304    00040093      addi ra, s0, 0
80001308    00008067      jalr zero, 0(ra)
8000130C    000ff297      auipc t0, 1044480
80001310    cf428293      addi t0, t0, 3316
80001314    0002a303      lw t1, 0(t0)
80001318    00130313      addi t1, t1, 1
8000131C    0062a023      sw t1, 0(t0)
80001320    00040093      addi ra, s0, 0
80001324    00008067      jalr zero, 0(ra)
80001328    06054063      blt a0, zero, 96
8000132C    0605c663      blt a1, zero, 108
80001330    00058613      addi a2, a1, 0
80001334    00050593      addi a1, a0, 0
80001338    fff00513      addi a0, zero, 4095
8000133C    02060c63      beq a2, zero, 56
80001340    00100693      addi a3, zero, 1
80001344    00b67a63      bgeu a2, a1, 20
80001348    00c05863      bge zero, a2, 16
8000134C    00161613      slli a2, a2, 1
80001350    00169693      slli a3, a3, 1
80001354    feb66ae3      bltu a2, a1, 4084
80001358    00000513      addi a0, zero, 0
8000135C    00c5e663      bltu a1, a2, 12
80001360    40c585b3      sub a1, a1, a2
80001364    00d56533      or a0, a0, a3
80001368    0016d693      srli a3, a3, 1
8000136C    00165613      srli a2, a2, 1
80001370    fe0696e3      bne a3, zero, 4076
80001374    00008067      jalr zero, 0(ra)
80001378    00008293      addi t0, ra, 0
8000137C    fb5ff0ef      jal ra, 4020
80001380    00058513      addi a0, a1, 0
80001384    00028067      jalr zero, 0(t0)
80001388    40a00533      sub a0, zero, a0
8000138C    00b04863      blt zero, a1, 16
80001390    40b005b3      sub a1, zero, a1
80001394    f9dff06f      jal zero, 3996
80001398    40b005b3      sub a1, zero, a1
8000139C    00008293      addi t0, ra, 0
800013A0    f91ff0ef      jal ra, 3984
800013A4    40a00533      sub a0, zero, a0
800013A8    00028067      jalr zero, 0(t0)
800013AC    00008293      addi t0, ra, 0
800013B0    0005ca63      blt a1, zero, 20
800013B4    00054c63      blt a0, zero, 24
800013B8    f79ff0ef      jal ra, 3960
800013BC    00058513      addi a0, a1, 0
800013C0    00028067      jalr zero, 0(t0)
800013C4    40b005b3      sub a1, zero, a1
800013C8    fe0558e3      bge a0, zero, 4080
800013CC    40a00533      sub a0, zero, a0
800013D0    f61ff0ef      jal ra, 3936
800013D4    40b00533      sub a0, zero, a1
800013D8    00028067      jalr zero, 0(t0)
